; Function Attrs: nounwind uwtable
define ptr @l_Lean_Meta_instToExprCoeFnType___lambda__1___boxed(ptr noundef %0) #1 {
  %2 = ptrtoint ptr %0 to i64
  %3 = and i64 %2, 1
  %.not = icmp eq i64 %3, 0
  br i1 %.not, label %4, label %lean_dec.exit

4:                                                ; preds = %1
  %5 = load i32, ptr %0, align 4, !tbaa !4
  %6 = icmp sgt i32 %5, 1
  br i1 %6, label %7, label %9, !prof !9

7:                                                ; preds = %4
  %8 = add nsw i32 %5, -1
  store i32 %8, ptr %0, align 4, !tbaa !4
  br label %lean_dec.exit

9:                                                ; preds = %4
  %.not.i = icmp eq i32 %5, 0
  br i1 %.not.i, label %lean_dec.exit, label %10

10:                                               ; preds = %9
  tail call void @lean_dec_ref_cold(ptr noundef nonnull %0) #7
  br label %lean_dec.exit

lean_dec.exit:                                    ; preds = %10, %9, %7, %1
  %11 = lshr i64 %2, 1
  %12 = trunc i64 %11 to i8
  %switch.selectcmp.i = icmp eq i8 %12, 1
  %switch.selectcmp4.i = icmp eq i8 %12, 0
  %l_Lean_Meta_instToExprCoeFnType___lambda__1___closed__6.val.i = load ptr, ptr @l_Lean_Meta_instToExprCoeFnType___lambda__1___closed__6, align 8
  %l_Lean_Meta_instToExprCoeFnType___lambda__1___closed__9.val.i = load ptr, ptr @l_Lean_Meta_instToExprCoeFnType___lambda__1___closed__9, align 8
  %l_Lean_Meta_instToExprCoeFnType___lambda__1___closed__12.val.i = load ptr, ptr @l_Lean_Meta_instToExprCoeFnType___lambda__1___closed__12, align 8
  %switch.select.val.i = select i1 %switch.selectcmp.i, ptr %l_Lean_Meta_instToExprCoeFnType___lambda__1___closed__9.val.i, ptr %l_Lean_Meta_instToExprCoeFnType___lambda__1___closed__12.val.i
  %.0.i = select i1 %switch.selectcmp4.i, ptr %l_Lean_Meta_instToExprCoeFnType___lambda__1___closed__6.val.i, ptr %switch.select.val.i
  ret ptr %.0.i
}